target datalayout = "e-m:e-p270:32:32-p271:32:32-p272:64:64-i64:64-i128:128-f80:128-n8:16:32:64-S128"
target triple = "x86_64-pc-linux-gnu"

%"class.ncnn::Option" = type { i8, i32, ptr, ptr, i32, i8, i8, i8, i8, i8, i8, i8, i8, i8, i8, i8, i8, i8, i8, i8, i8, i8, i8, i8, i8, i32, i8, i8, i8, i8, i8, i8, i8, i8, i8, i8, i8, i8 }
%"class.std::vector.28" = type { %"struct.std::_Vector_base.29" }
%"struct.std::_Vector_base.29" = type { %"struct.std::_Vector_base<ncnn::Mat, std::allocator<ncnn::Mat>>::_Vector_impl" }
%"struct.std::_Vector_base<ncnn::Mat, std::allocator<ncnn::Mat>>::_Vector_impl" = type { %"struct.std::_Vector_base<ncnn::Mat, std::allocator<ncnn::Mat>>::_Vector_impl_data" }
%"struct.std::_Vector_base<ncnn::Mat, std::allocator<ncnn::Mat>>::_Vector_impl_data" = type { ptr, ptr, ptr }
%"class.ncnn::Extractor" = type { ptr, ptr }
%"class.ncnn::ExtractorPrivate" = type { ptr, %"class.std::vector.28", %"class.ncnn::Option" }

; Function Attrs: mustprogress uwtable
define hidden noundef nonnull align 8 dereferenceable(16) ptr @_ZN4ncnn9ExtractoraSERKS0_(ptr noundef nonnull align 8 dereferenceable(16) %0, ptr noundef nonnull align 8 dereferenceable(16) %1) #1 align 2 {
  %3 = alloca ptr, align 8
  %4 = alloca ptr, align 8
  %5 = alloca ptr, align 8
  store ptr %0, ptr %4, align 8, !tbaa !51
  store ptr %1, ptr %5, align 8, !tbaa !51
  %6 = load ptr, ptr %4, align 8
  %7 = load ptr, ptr %5, align 8, !tbaa !51
  %8 = icmp eq ptr %6, %7
  br i1 %8, label %9, label %10

9:                                                ; preds = %2
  store ptr %6, ptr %3, align 8
  br label %34

10:                                               ; preds = %2
  %11 = load ptr, ptr %5, align 8, !tbaa !51
  %12 = getelementptr inbounds nuw %"class.ncnn::Extractor", ptr %11, i32 0, i32 1
  %13 = load ptr, ptr %12, align 8, !tbaa !375
  %14 = getelementptr inbounds nuw %"class.ncnn::ExtractorPrivate", ptr %13, i32 0, i32 0
  %15 = load ptr, ptr %14, align 8, !tbaa !378
  %16 = getelementptr inbounds nuw %"class.ncnn::Extractor", ptr %6, i32 0, i32 1
  %17 = load ptr, ptr %16, align 8, !tbaa !375
  %18 = getelementptr inbounds nuw %"class.ncnn::ExtractorPrivate", ptr %17, i32 0, i32 0
  store ptr %15, ptr %18, align 8, !tbaa !378
  %19 = load ptr, ptr %5, align 8, !tbaa !51
  %20 = getelementptr inbounds nuw %"class.ncnn::Extractor", ptr %19, i32 0, i32 1
  %21 = load ptr, ptr %20, align 8, !tbaa !375
  %22 = getelementptr inbounds nuw %"class.ncnn::ExtractorPrivate", ptr %21, i32 0, i32 1
  %23 = getelementptr inbounds nuw %"class.ncnn::Extractor", ptr %6, i32 0, i32 1
  %24 = load ptr, ptr %23, align 8, !tbaa !375
  %25 = getelementptr inbounds nuw %"class.ncnn::ExtractorPrivate", ptr %24, i32 0, i32 1
  %26 = call noundef nonnull align 8 dereferenceable(24) ptr @_ZNSt6vectorIN4ncnn3MatESaIS1_EEaSERKS3_(ptr noundef nonnull align 8 dereferenceable(24) %25, ptr noundef nonnull align 8 dereferenceable(24) %22)
  %27 = load ptr, ptr %5, align 8, !tbaa !51
  %28 = getelementptr inbounds nuw %"class.ncnn::Extractor", ptr %27, i32 0, i32 1
  %29 = load ptr, ptr %28, align 8, !tbaa !375
  %30 = getelementptr inbounds nuw %"class.ncnn::ExtractorPrivate", ptr %29, i32 0, i32 2
  %31 = getelementptr inbounds nuw %"class.ncnn::Extractor", ptr %6, i32 0, i32 1
  %32 = load ptr, ptr %31, align 8, !tbaa !375
  %33 = getelementptr inbounds nuw %"class.ncnn::ExtractorPrivate", ptr %32, i32 0, i32 2
  call void @llvm.memcpy.p0.p0.i64(ptr align 8 %33, ptr align 8 %30, i64 64, i1 false), !tbaa.struct !197
  store ptr %6, ptr %3, align 8
  br label %34

34:                                               ; preds = %10, %9
  %35 = load ptr, ptr %3, align 8
  ret ptr %35
}