; Function Attrs: mustprogress uwtable
define hidden noundef nonnull align 8 dereferenceable(16) ptr @_ZN4ncnn9ExtractoraSERKS0_(ptr noundef nonnull readonly returned align 8 dereferenceable(16) %0, ptr noundef nonnull readonly align 8 dereferenceable(16) %1) local_unnamed_addr #2 align 2 {
  %3 = icmp eq ptr %0, %1
  br i1 %3, label %17, label %4

4:                                                ; preds = %2
  %5 = getelementptr inbounds nuw i8, ptr %1, i64 8
  %6 = load ptr, ptr %5, align 8, !tbaa !213
  %7 = load ptr, ptr %6, align 8, !tbaa !210
  %8 = getelementptr inbounds nuw i8, ptr %0, i64 8
  %9 = load ptr, ptr %8, align 8, !tbaa !213
  store ptr %7, ptr %9, align 8, !tbaa !210
  %10 = getelementptr inbounds nuw i8, ptr %6, i64 8
  %11 = getelementptr inbounds nuw i8, ptr %9, i64 8
  %12 = tail call noundef nonnull align 8 dereferenceable(24) ptr @_ZNSt6vectorIN4ncnn3MatESaIS1_EEaSERKS3_(ptr noundef nonnull align 8 dereferenceable(24) %11, ptr noundef nonnull align 8 dereferenceable(24) %10)
  %13 = load ptr, ptr %5, align 8, !tbaa !213
  %14 = getelementptr inbounds nuw i8, ptr %13, i64 32
  %15 = load ptr, ptr %8, align 8, !tbaa !213
  %16 = getelementptr inbounds nuw i8, ptr %15, i64 32
  tail call void @llvm.memcpy.p0.p0.i64(ptr noundef nonnull align 8 dereferenceable(64) %16, ptr noundef nonnull align 8 dereferenceable(64) %14, i64 64, i1 false), !tbaa.struct !72
  br label %17

17:                                               ; preds = %2, %4
  ret ptr %0
}